; Function Attrs: mustprogress uwtable
define void @_ZNK3g2o22RobustKernelScaleDelta9robustifyEdRN5Eigen6MatrixIdLi3ELi1ELi0ELi3ELi1EEE(ptr noundef nonnull readonly align 8 captures(none) dereferenceable(32) %0, double noundef %1, ptr noundef nonnull align 8 dereferenceable(24) %2) unnamed_addr #4 align 2 personality ptr @__gxx_personality_v0 {
  %4 = getelementptr inbounds nuw i8, ptr %0, i64 16
  %5 = load ptr, ptr %4, align 8, !tbaa !6
  %.not = icmp eq ptr %5, null
  br i1 %.not, label %20, label %6

6:                                                ; preds = %3
  %7 = getelementptr inbounds nuw i8, ptr %0, i64 8
  %8 = load double, ptr %7, align 8, !tbaa !21
  %9 = fmul double %8, %8
  %10 = fdiv double 1.000000e+00, %9
  %11 = fmul double %1, %10
  %12 = load ptr, ptr %5, align 8, !tbaa !3
  %13 = getelementptr inbounds nuw i8, ptr %12, i64 16
  %14 = load ptr, ptr %13, align 8
  tail call void %14(ptr noundef nonnull align 8 dereferenceable(16) %5, double noundef %11, ptr noundef nonnull align 8 dereferenceable(24) %2)
  %15 = load double, ptr %2, align 8, !tbaa !24
  %16 = fmul double %9, %15
  store double %16, ptr %2, align 8, !tbaa !24
  %17 = getelementptr inbounds nuw i8, ptr %2, i64 16
  %18 = load double, ptr %17, align 8, !tbaa !24
  %19 = fmul double %10, %18
  store double %19, ptr %17, align 8, !tbaa !24
  br label %23

20:                                               ; preds = %3
  store double %1, ptr %2, align 8, !tbaa !24
  %21 = getelementptr inbounds nuw i8, ptr %2, i64 8
  store double 1.000000e+00, ptr %21, align 8, !tbaa !24
  %22 = getelementptr inbounds nuw i8, ptr %2, i64 16
  store double 0.000000e+00, ptr %22, align 8, !tbaa !24
  br label %23

23:                                               ; preds = %20, %6
  ret void
}